target datalayout = "e-m:e-p270:32:32-p271:32:32-p272:64:64-i64:64-i128:128-f80:128-n8:16:32:64-S128"
target triple = "x86_64-pc-linux-gnu"

%struct.Int_Man_t_ = type { ptr, [16 x i32], i32, i32, i32, i32, i32, i32, i32, i32, ptr, ptr, ptr, ptr, ptr, i32, ptr, ptr, i32, i32, i32, ptr, ptr, ptr, i32, i32, i64, i64, i64 }
%struct.Sto_Man_t_ = type { i32, i32, i32, i32, ptr, ptr, ptr, i32, i32, ptr }
%struct.Sto_Cls_t_ = type { ptr, ptr, ptr, i32, i32, [0 x i32] }

; Function Attrs: inlinehint nounwind uwtable
define internal void @Int_ManTruthOr(ptr noundef %0, ptr noundef %1, i32 noundef %2) #4 {
  %4 = alloca ptr, align 8
  %5 = alloca ptr, align 8
  %6 = alloca i32, align 4
  %7 = alloca i32, align 4
  store ptr %0, ptr %4, align 8, !tbaa !55
  store ptr %1, ptr %5, align 8, !tbaa !55
  store i32 %2, ptr %6, align 4, !tbaa !20
  call void @llvm.lifetime.start.p0(i64 4, ptr %7) #9
  %8 = load i32, ptr %6, align 4, !tbaa !20
  %9 = sub nsw i32 %8, 1
  store i32 %9, ptr %7, align 4, !tbaa !20
  br label %10

10:                                               ; preds = %25, %3
  %11 = load i32, ptr %7, align 4, !tbaa !20
  %12 = icmp sge i32 %11, 0
  br i1 %12, label %13, label %28

13:                                               ; preds = %10
  %14 = load ptr, ptr %5, align 8, !tbaa !55
  %15 = load i32, ptr %7, align 4, !tbaa !20
  %16 = sext i32 %15 to i64
  %17 = getelementptr inbounds i32, ptr %14, i64 %16
  %18 = load i32, ptr %17, align 4, !tbaa !20
  %19 = load ptr, ptr %4, align 8, !tbaa !55
  %20 = load i32, ptr %7, align 4, !tbaa !20
  %21 = sext i32 %20 to i64
  %22 = getelementptr inbounds i32, ptr %19, i64 %21
  %23 = load i32, ptr %22, align 4, !tbaa !20
  %24 = or i32 %23, %18
  store i32 %24, ptr %22, align 4, !tbaa !20
  br label %25

25:                                               ; preds = %13
  %26 = load i32, ptr %7, align 4, !tbaa !20
  %27 = add nsw i32 %26, -1
  store i32 %27, ptr %7, align 4, !tbaa !20
  br label %10, !llvm.loop !89

28:                                               ; preds = %10
  call void @llvm.lifetime.end.p0(i64 4, ptr %7) #9
  ret void
}

; Function Attrs: inlinehint nounwind uwtable
define internal void @Int_ManTruthOrNot(ptr noundef %0, ptr noundef %1, i32 noundef %2) #4 {
  %4 = alloca ptr, align 8
  %5 = alloca ptr, align 8
  %6 = alloca i32, align 4
  %7 = alloca i32, align 4
  store ptr %0, ptr %4, align 8, !tbaa !55
  store ptr %1, ptr %5, align 8, !tbaa !55
  store i32 %2, ptr %6, align 4, !tbaa !20
  call void @llvm.lifetime.start.p0(i64 4, ptr %7) #9
  %8 = load i32, ptr %6, align 4, !tbaa !20
  %9 = sub nsw i32 %8, 1
  store i32 %9, ptr %7, align 4, !tbaa !20
  br label %10

10:                                               ; preds = %26, %3
  %11 = load i32, ptr %7, align 4, !tbaa !20
  %12 = icmp sge i32 %11, 0
  br i1 %12, label %13, label %29

13:                                               ; preds = %10
  %14 = load ptr, ptr %5, align 8, !tbaa !55
  %15 = load i32, ptr %7, align 4, !tbaa !20
  %16 = sext i32 %15 to i64
  %17 = getelementptr inbounds i32, ptr %14, i64 %16
  %18 = load i32, ptr %17, align 4, !tbaa !20
  %19 = xor i32 %18, -1
  %20 = load ptr, ptr %4, align 8, !tbaa !55
  %21 = load i32, ptr %7, align 4, !tbaa !20
  %22 = sext i32 %21 to i64
  %23 = getelementptr inbounds i32, ptr %20, i64 %22
  %24 = load i32, ptr %23, align 4, !tbaa !20
  %25 = or i32 %24, %19
  store i32 %25, ptr %23, align 4, !tbaa !20
  br label %26

26:                                               ; preds = %13
  %27 = load i32, ptr %7, align 4, !tbaa !20
  %28 = add nsw i32 %27, -1
  store i32 %28, ptr %7, align 4, !tbaa !20
  br label %10, !llvm.loop !105

29:                                               ; preds = %10
  call void @llvm.lifetime.end.p0(i64 4, ptr %7) #9
  ret void
}

; Function Attrs: inlinehint nounwind uwtable
define internal i32 @lit_sign(i32 noundef %0) #4 {
  %2 = alloca i32, align 4
  store i32 %0, ptr %2, align 4, !tbaa !20
  %3 = load i32, ptr %2, align 4, !tbaa !20
  %4 = and i32 %3, 1
  ret i32 %4
}

; Function Attrs: inlinehint nounwind uwtable
define internal i32 @lit_var(i32 noundef %0) #4 {
  %2 = alloca i32, align 4
  store i32 %0, ptr %2, align 4, !tbaa !20
  %3 = load i32, ptr %2, align 4, !tbaa !20
  %4 = ashr i32 %3, 1
  ret i32 %4
}

; Function Attrs: inlinehint nounwind uwtable
define internal void @Int_ManTruthClear(ptr noundef %0, i32 noundef %1) #4 {
  %3 = alloca ptr, align 8
  %4 = alloca i32, align 4
  %5 = alloca i32, align 4
  store ptr %0, ptr %3, align 8, !tbaa !55
  store i32 %1, ptr %4, align 4, !tbaa !20
  call void @llvm.lifetime.start.p0(i64 4, ptr %5) #9
  %6 = load i32, ptr %4, align 4, !tbaa !20
  %7 = sub nsw i32 %6, 1
  store i32 %7, ptr %5, align 4, !tbaa !20
  br label %8

8:                                                ; preds = %16, %2
  %9 = load i32, ptr %5, align 4, !tbaa !20
  %10 = icmp sge i32 %9, 0
  br i1 %10, label %11, label %19

11:                                               ; preds = %8
  %12 = load ptr, ptr %3, align 8, !tbaa !55
  %13 = load i32, ptr %5, align 4, !tbaa !20
  %14 = sext i32 %13 to i64
  %15 = getelementptr inbounds i32, ptr %12, i64 %14
  store i32 0, ptr %15, align 4, !tbaa !20
  br label %16

16:                                               ; preds = %11
  %17 = load i32, ptr %5, align 4, !tbaa !20
  %18 = add nsw i32 %17, -1
  store i32 %18, ptr %5, align 4, !tbaa !20
  br label %8, !llvm.loop !104

19:                                               ; preds = %8
  call void @llvm.lifetime.end.p0(i64 4, ptr %5) #9
  ret void
}

; Function Attrs: inlinehint nounwind uwtable
define internal void @Int_ManTruthFill(ptr noundef %0, i32 noundef %1) #4 {
  %3 = alloca ptr, align 8
  %4 = alloca i32, align 4
  %5 = alloca i32, align 4
  store ptr %0, ptr %3, align 8, !tbaa !55
  store i32 %1, ptr %4, align 4, !tbaa !20
  call void @llvm.lifetime.start.p0(i64 4, ptr %5) #9
  %6 = load i32, ptr %4, align 4, !tbaa !20
  %7 = sub nsw i32 %6, 1
  store i32 %7, ptr %5, align 4, !tbaa !20
  br label %8

8:                                                ; preds = %16, %2
  %9 = load i32, ptr %5, align 4, !tbaa !20
  %10 = icmp sge i32 %9, 0
  br i1 %10, label %11, label %19

11:                                               ; preds = %8
  %12 = load ptr, ptr %3, align 8, !tbaa !55
  %13 = load i32, ptr %5, align 4, !tbaa !20
  %14 = sext i32 %13 to i64
  %15 = getelementptr inbounds i32, ptr %12, i64 %14
  store i32 -1, ptr %15, align 4, !tbaa !20
  br label %16

16:                                               ; preds = %11
  %17 = load i32, ptr %5, align 4, !tbaa !20
  %18 = add nsw i32 %17, -1
  store i32 %18, ptr %5, align 4, !tbaa !20
  br label %8, !llvm.loop !103

19:                                               ; preds = %8
  call void @llvm.lifetime.end.p0(i64 4, ptr %5) #9
  ret void
}

; Function Attrs: inlinehint nounwind uwtable
define internal ptr @Int_ManTruthRead(ptr noundef %0, ptr noundef %1) #4 {
  %3 = alloca ptr, align 8
  %4 = alloca ptr, align 8
  store ptr %0, ptr %3, align 8, !tbaa !3
  store ptr %1, ptr %4, align 8, !tbaa !26
  %5 = load ptr, ptr %3, align 8, !tbaa !3
  %6 = getelementptr inbounds nuw %struct.Int_Man_t_, ptr %5, i32 0, i32 17
  %7 = load ptr, ptr %6, align 8, !tbaa !52
  %8 = load ptr, ptr %4, align 8, !tbaa !26
  %9 = getelementptr inbounds nuw %struct.Sto_Cls_t_, ptr %8, i32 0, i32 3
  %10 = load i32, ptr %9, align 8, !tbaa !53
  %11 = load ptr, ptr %3, align 8, !tbaa !3
  %12 = getelementptr inbounds nuw %struct.Int_Man_t_, ptr %11, i32 0, i32 19
  %13 = load i32, ptr %12, align 4, !tbaa !46
  %14 = mul nsw i32 %10, %13
  %15 = sext i32 %14 to i64
  %16 = getelementptr inbounds i32, ptr %7, i64 %15
  ret ptr %16
}

; Function Attrs: nounwind uwtable
define void @Int_ManPrepareInter(ptr noundef %0) #0 {
  %2 = alloca ptr, align 8
  %3 = alloca [8 x [8 x i32]], align 16
  %4 = alloca ptr, align 8
  %5 = alloca i32, align 4
  %6 = alloca i32, align 4
  %7 = alloca i32, align 4
  store ptr %0, ptr %2, align 8, !tbaa !3
  call void @llvm.lifetime.start.p0(i64 256, ptr %3) #9
  call void @llvm.memcpy.p0.p0.i64(ptr align 16 %3, ptr align 16 @__const.Int_ManPrepareInter.uTruths, i64 256, i1 false)
  call void @llvm.lifetime.start.p0(i64 8, ptr %4) #9
  call void @llvm.lifetime.start.p0(i64 4, ptr %5) #9
  call void @llvm.lifetime.start.p0(i64 4, ptr %6) #9
  call void @llvm.lifetime.start.p0(i64 4, ptr %7) #9
  %8 = load ptr, ptr %2, align 8, !tbaa !3
  %9 = getelementptr inbounds nuw %struct.Int_Man_t_, ptr %8, i32 0, i32 0
  %10 = load ptr, ptr %9, align 8, !tbaa !22
  %11 = getelementptr inbounds nuw %struct.Sto_Man_t_, ptr %10, i32 0, i32 4
  %12 = load ptr, ptr %11, align 8, !tbaa !23
  store ptr %12, ptr %4, align 8, !tbaa !26
  br label %13

13:                                               ; preds = %115, %1
  %14 = load ptr, ptr %4, align 8, !tbaa !26
  %15 = icmp ne ptr %14, null
  br i1 %15, label %16, label %23

16:                                               ; preds = %13
  %17 = load ptr, ptr %4, align 8, !tbaa !26
  %18 = getelementptr inbounds nuw %struct.Sto_Cls_t_, ptr %17, i32 0, i32 4
  %19 = load i32, ptr %18, align 4
  %20 = lshr i32 %19, 1
  %21 = and i32 %20, 1
  %22 = icmp ne i32 %21, 0
  br label %23

23:                                               ; preds = %16, %13
  %24 = phi i1 [ false, %13 ], [ %22, %16 ]
  br i1 %24, label %25, label %119

25:                                               ; preds = %23
  %26 = load ptr, ptr %4, align 8, !tbaa !26
  %27 = getelementptr inbounds nuw %struct.Sto_Cls_t_, ptr %26, i32 0, i32 4
  %28 = load i32, ptr %27, align 4
  %29 = and i32 %28, 1
  %30 = icmp ne i32 %29, 0
  br i1 %30, label %38, label %31

31:                                               ; preds = %25
  %32 = load ptr, ptr %2, align 8, !tbaa !3
  %33 = load ptr, ptr %4, align 8, !tbaa !26
  %34 = call ptr @Int_ManTruthRead(ptr noundef %32, ptr noundef %33)
  %35 = load ptr, ptr %2, align 8, !tbaa !3
  %36 = getelementptr inbounds nuw %struct.Int_Man_t_, ptr %35, i32 0, i32 19
  %37 = load i32, ptr %36, align 4, !tbaa !46
  call void @Int_ManTruthFill(ptr noundef %34, i32 noundef %37)
  br label %115

38:                                               ; preds = %25
  %39 = load ptr, ptr %2, align 8, !tbaa !3
  %40 = load ptr, ptr %4, align 8, !tbaa !26
  %41 = call ptr @Int_ManTruthRead(ptr noundef %39, ptr noundef %40)
  %42 = load ptr, ptr %2, align 8, !tbaa !3
  %43 = getelementptr inbounds nuw %struct.Int_Man_t_, ptr %42, i32 0, i32 19
  %44 = load i32, ptr %43, align 4, !tbaa !46
  call void @Int_ManTruthClear(ptr noundef %41, i32 noundef %44)
  store i32 0, ptr %7, align 4, !tbaa !20
  br label %45

45:                                               ; preds = %111, %38
  %46 = load i32, ptr %7, align 4, !tbaa !20
  %47 = load ptr, ptr %4, align 8, !tbaa !26
  %48 = getelementptr inbounds nuw %struct.Sto_Cls_t_, ptr %47, i32 0, i32 4
  %49 = load i32, ptr %48, align 4
  %50 = lshr i32 %49, 3
  %51 = and i32 %50, 16777215
  %52 = icmp slt i32 %46, %51
  br i1 %52, label %53, label %114

53:                                               ; preds = %45
  %54 = load ptr, ptr %4, align 8, !tbaa !26
  %55 = getelementptr inbounds nuw %struct.Sto_Cls_t_, ptr %54, i32 0, i32 5
  %56 = load i32, ptr %7, align 4, !tbaa !20
  %57 = sext i32 %56 to i64
  %58 = getelementptr inbounds [0 x i32], ptr %55, i64 0, i64 %57
  %59 = load i32, ptr %58, align 4, !tbaa !20
  %60 = call i32 @lit_var(i32 noundef %59)
  store i32 %60, ptr %5, align 4, !tbaa !20
  %61 = load ptr, ptr %2, align 8, !tbaa !3
  %62 = getelementptr inbounds nuw %struct.Int_Man_t_, ptr %61, i32 0, i32 16
  %63 = load ptr, ptr %62, align 8, !tbaa !27
  %64 = load i32, ptr %5, align 4, !tbaa !20
  %65 = sext i32 %64 to i64
  %66 = getelementptr inbounds i32, ptr %63, i64 %65
  %67 = load i32, ptr %66, align 4, !tbaa !20
  %68 = icmp slt i32 %67, 0
  br i1 %68, label %69, label %110

69:                                               ; preds = %53
  %70 = load ptr, ptr %2, align 8, !tbaa !3
  %71 = getelementptr inbounds nuw %struct.Int_Man_t_, ptr %70, i32 0, i32 16
  %72 = load ptr, ptr %71, align 8, !tbaa !27
  %73 = load i32, ptr %5, align 4, !tbaa !20
  %74 = sext i32 %73 to i64
  %75 = getelementptr inbounds i32, ptr %72, i64 %74
  %76 = load i32, ptr %75, align 4, !tbaa !20
  %77 = sub nsw i32 0, %76
  %78 = sub nsw i32 %77, 1
  store i32 %78, ptr %6, align 4, !tbaa !20
  %79 = load ptr, ptr %4, align 8, !tbaa !26
  %80 = getelementptr inbounds nuw %struct.Sto_Cls_t_, ptr %79, i32 0, i32 5
  %81 = load i32, ptr %7, align 4, !tbaa !20
  %82 = sext i32 %81 to i64
  %83 = getelementptr inbounds [0 x i32], ptr %80, i64 0, i64 %82
  %84 = load i32, ptr %83, align 4, !tbaa !20
  %85 = call i32 @lit_sign(i32 noundef %84)
  %86 = icmp ne i32 %85, 0
  br i1 %86, label %87, label %98

87:                                               ; preds = %69
  %88 = load ptr, ptr %2, align 8, !tbaa !3
  %89 = load ptr, ptr %4, align 8, !tbaa !26
  %90 = call ptr @Int_ManTruthRead(ptr noundef %88, ptr noundef %89)
  %91 = load i32, ptr %6, align 4, !tbaa !20
  %92 = sext i32 %91 to i64
  %93 = getelementptr inbounds [8 x [8 x i32]], ptr %3, i64 0, i64 %92
  %94 = getelementptr inbounds [8 x i32], ptr %93, i64 0, i64 0
  %95 = load ptr, ptr %2, align 8, !tbaa !3
  %96 = getelementptr inbounds nuw %struct.Int_Man_t_, ptr %95, i32 0, i32 19
  %97 = load i32, ptr %96, align 4, !tbaa !46
  call void @Int_ManTruthOrNot(ptr noundef %90, ptr noundef %94, i32 noundef %97)
  br label %109

98:                                               ; preds = %69
  %99 = load ptr, ptr %2, align 8, !tbaa !3
  %100 = load ptr, ptr %4, align 8, !tbaa !26
  %101 = call ptr @Int_ManTruthRead(ptr noundef %99, ptr noundef %100)
  %102 = load i32, ptr %6, align 4, !tbaa !20
  %103 = sext i32 %102 to i64
  %104 = getelementptr inbounds [8 x [8 x i32]], ptr %3, i64 0, i64 %103
  %105 = getelementptr inbounds [8 x i32], ptr %104, i64 0, i64 0
  %106 = load ptr, ptr %2, align 8, !tbaa !3
  %107 = getelementptr inbounds nuw %struct.Int_Man_t_, ptr %106, i32 0, i32 19
  %108 = load i32, ptr %107, align 4, !tbaa !46
  call void @Int_ManTruthOr(ptr noundef %101, ptr noundef %105, i32 noundef %108)
  br label %109

109:                                              ; preds = %98, %87
  br label %110

110:                                              ; preds = %109, %53
  br label %111

111:                                              ; preds = %110
  %112 = load i32, ptr %7, align 4, !tbaa !20
  %113 = add nsw i32 %112, 1
  store i32 %113, ptr %7, align 4, !tbaa !20
  br label %45, !llvm.loop !101

114:                                              ; preds = %45
  br label %115

115:                                              ; preds = %114, %31
  %116 = load ptr, ptr %4, align 8, !tbaa !26
  %117 = getelementptr inbounds nuw %struct.Sto_Cls_t_, ptr %116, i32 0, i32 0
  %118 = load ptr, ptr %117, align 8, !tbaa !30
  store ptr %118, ptr %4, align 8, !tbaa !26
  br label %13, !llvm.loop !102

119:                                              ; preds = %23
  call void @llvm.lifetime.end.p0(i64 4, ptr %7) #9
  call void @llvm.lifetime.end.p0(i64 4, ptr %6) #9
  call void @llvm.lifetime.end.p0(i64 4, ptr %5) #9
  call void @llvm.lifetime.end.p0(i64 8, ptr %4) #9
  call void @llvm.lifetime.end.p0(i64 256, ptr %3) #9
  ret void
}