; Function Attrs: nofree norecurse nosync nounwind memory(readwrite, inaccessiblemem: none) uwtable
define void @Int_ManPrepareInter(ptr noundef readonly captures(none) %0) local_unnamed_addr #5 {
  %2 = load ptr, ptr %0, align 8, !tbaa !18
  %3 = getelementptr inbounds nuw i8, ptr %2, i64 16
  %.02952 = load ptr, ptr %3, align 8, !tbaa !19
  %.not53 = icmp eq ptr %.02952, null
  br i1 %.not53, label %.critedge, label %.lr.ph55

.lr.ph55:                                         ; preds = %1
  %4 = getelementptr i8, ptr %0, i64 160
  %5 = getelementptr i8, ptr %0, i64 172
  %6 = getelementptr inbounds nuw i8, ptr %0, i64 152
  br label %7

7:                                                ; preds = %.lr.ph55, %Int_ManTruthFill.exit
  %.02954 = phi ptr [ %.02952, %.lr.ph55 ], [ %.029, %Int_ManTruthFill.exit ]
  %8 = getelementptr inbounds nuw i8, ptr %.02954, i64 28
  %9 = load i32, ptr %8, align 4
  %10 = and i32 %9, 2
  %.not31 = icmp eq i32 %10, 0
  br i1 %.not31, label %.critedge, label %11

11:                                               ; preds = %7
  %12 = and i32 %9, 1
  %.not32 = icmp eq i32 %12, 0
  br i1 %.not32, label %13, label %21

13:                                               ; preds = %11
  %.val42 = load i32, ptr %5, align 4, !tbaa !40
  %14 = icmp sgt i32 %.val42, 0
  br i1 %14, label %.lr.ph.preheader.i, label %Int_ManTruthFill.exit

.lr.ph.preheader.i:                               ; preds = %13
  %.val41 = load ptr, ptr %4, align 8, !tbaa !46
  %15 = getelementptr i8, ptr %.02954, i64 24
  %.029.val43 = load i32, ptr %15, align 8, !tbaa !47
  %16 = mul nsw i32 %.029.val43, %.val42
  %17 = sext i32 %16 to i64
  %18 = getelementptr inbounds i32, ptr %.val41, i64 %17
  %19 = zext nneg i32 %.val42 to i64
  %20 = shl nuw nsw i64 %19, 2
  tail call void @llvm.memset.p0.i64(ptr align 4 %18, i8 -1, i64 %20, i1 false), !tbaa !24
  br label %Int_ManTruthFill.exit

21:                                               ; preds = %11
  %.val38 = load ptr, ptr %4, align 8, !tbaa !46
  %.val39 = load i32, ptr %5, align 4, !tbaa !40
  %22 = getelementptr i8, ptr %.02954, i64 24
  %23 = icmp sgt i32 %.val39, 0
  br i1 %23, label %.lr.ph.preheader.i44, label %Int_ManTruthClear.exit

.lr.ph.preheader.i44:                             ; preds = %21
  %.029.val40 = load i32, ptr %22, align 8, !tbaa !47
  %24 = mul nsw i32 %.029.val40, %.val39
  %25 = sext i32 %24 to i64
  %26 = getelementptr inbounds i32, ptr %.val38, i64 %25
  %27 = zext nneg i32 %.val39 to i64
  %28 = shl nuw nsw i64 %27, 2
  tail call void @llvm.memset.p0.i64(ptr align 4 %26, i8 0, i64 %28, i1 false), !tbaa !24
  %.pre = load i32, ptr %8, align 4
  br label %Int_ManTruthClear.exit

Int_ManTruthClear.exit:                           ; preds = %21, %.lr.ph.preheader.i44
  %29 = phi i32 [ %9, %21 ], [ %.pre, %.lr.ph.preheader.i44 ]
  %30 = and i32 %29, 134217720
  %.not57 = icmp eq i32 %30, 0
  br i1 %.not57, label %Int_ManTruthFill.exit, label %.lr.ph

.lr.ph:                                           ; preds = %Int_ManTruthClear.exit
  %31 = getelementptr inbounds nuw i8, ptr %.02954, i64 32
  %32 = load ptr, ptr %6, align 8, !tbaa !23
  br label %33

33:                                               ; preds = %.lr.ph, %Int_ManTruthOrNot.exit
  %indvars.iv = phi i64 [ 0, %.lr.ph ], [ %indvars.iv.next, %Int_ManTruthOrNot.exit ]
  %34 = getelementptr inbounds nuw [0 x i32], ptr %31, i64 0, i64 %indvars.iv
  %35 = load i32, ptr %34, align 4, !tbaa !24
  %36 = ashr i32 %35, 1
  %37 = sext i32 %36 to i64
  %38 = getelementptr inbounds i32, ptr %32, i64 %37
  %39 = load i32, ptr %38, align 4, !tbaa !24
  %40 = icmp slt i32 %39, 0
  br i1 %40, label %41, label %Int_ManTruthOrNot.exit

41:                                               ; preds = %33
  %42 = xor i32 %39, -1
  %43 = and i32 %35, 1
  %.not33 = icmp eq i32 %43, 0
  %.val34 = load i32, ptr %5, align 4, !tbaa !40
  %.029.val = load i32, ptr %22, align 8, !tbaa !47
  %44 = mul nsw i32 %.029.val, %.val34
  %45 = sext i32 %44 to i64
  %46 = getelementptr inbounds i32, ptr %.val38, i64 %45
  %47 = zext nneg i32 %42 to i64
  %48 = getelementptr inbounds nuw [8 x [8 x i32]], ptr @__const.Int_ManPrepareInter.uTruths, i64 0, i64 %47
  %49 = icmp sgt i32 %.val34, 0
  br i1 %.not33, label %59, label %50

50:                                               ; preds = %41
  br i1 %49, label %.lr.ph.preheader.i45, label %Int_ManTruthOrNot.exit

.lr.ph.preheader.i45:                             ; preds = %50
  %51 = zext nneg i32 %.val34 to i64
  br label %.lr.ph.i

.lr.ph.i:                                         ; preds = %.lr.ph.i, %.lr.ph.preheader.i45
  %indvars.iv.i = phi i64 [ %51, %.lr.ph.preheader.i45 ], [ %indvars.iv.next.i, %.lr.ph.i ]
  %indvars.iv.next.i = add nsw i64 %indvars.iv.i, -1
  %52 = getelementptr inbounds nuw i32, ptr %48, i64 %indvars.iv.next.i
  %53 = load i32, ptr %52, align 4, !tbaa !24
  %54 = xor i32 %53, -1
  %55 = getelementptr inbounds nuw i32, ptr %46, i64 %indvars.iv.next.i
  %56 = load i32, ptr %55, align 4, !tbaa !24
  %57 = or i32 %56, %54
  store i32 %57, ptr %55, align 4, !tbaa !24
  %58 = icmp samesign ugt i64 %indvars.iv.i, 1
  br i1 %58, label %.lr.ph.i, label %Int_ManTruthOrNot.exit, !llvm.loop !96

59:                                               ; preds = %41
  br i1 %49, label %.lr.ph.preheader.i46, label %Int_ManTruthOrNot.exit

.lr.ph.preheader.i46:                             ; preds = %59
  %60 = zext nneg i32 %.val34 to i64
  br label %.lr.ph.i47

.lr.ph.i47:                                       ; preds = %.lr.ph.i47, %.lr.ph.preheader.i46
  %indvars.iv.i48 = phi i64 [ %60, %.lr.ph.preheader.i46 ], [ %indvars.iv.next.i49, %.lr.ph.i47 ]
  %indvars.iv.next.i49 = add nsw i64 %indvars.iv.i48, -1
  %61 = getelementptr inbounds nuw i32, ptr %48, i64 %indvars.iv.next.i49
  %62 = load i32, ptr %61, align 4, !tbaa !24
  %63 = getelementptr inbounds nuw i32, ptr %46, i64 %indvars.iv.next.i49
  %64 = load i32, ptr %63, align 4, !tbaa !24
  %65 = or i32 %64, %62
  store i32 %65, ptr %63, align 4, !tbaa !24
  %66 = icmp samesign ugt i64 %indvars.iv.i48, 1
  br i1 %66, label %.lr.ph.i47, label %Int_ManTruthOrNot.exit, !llvm.loop !74

Int_ManTruthOrNot.exit:                           ; preds = %.lr.ph.i, %.lr.ph.i47, %59, %50, %33
  %indvars.iv.next = add nuw nsw i64 %indvars.iv, 1
  %67 = load i32, ptr %8, align 4
  %68 = lshr i32 %67, 3
  %69 = and i32 %68, 16777215
  %70 = zext nneg i32 %69 to i64
  %71 = icmp samesign ult i64 %indvars.iv.next, %70
  br i1 %71, label %33, label %Int_ManTruthFill.exit, !llvm.loop !97

Int_ManTruthFill.exit:                            ; preds = %Int_ManTruthOrNot.exit, %Int_ManTruthClear.exit, %.lr.ph.preheader.i, %13
  %.029 = load ptr, ptr %.02954, align 8, !tbaa !19
  %.not = icmp eq ptr %.029, null
  br i1 %.not, label %.critedge, label %7, !llvm.loop !98

.critedge:                                        ; preds = %7, %Int_ManTruthFill.exit, %1
  ret void
}